(lp0
(lp1
(F40.0
F50.0
tp2
a(F85.0
F35.0
tp3
a(F88.0
F35.0
tp4
a(F90.0
F35.0
tp5
a(F95.0
F35.0
tp6
a(F95.0
F30.0
tp7
a(F92.0
F30.0
tp8
a(F88.0
F30.0
tp9
a(F87.0
F30.0
tp10
a(F85.0
F25.0
tp11
ag2
aa(lp12
g2
a(F47.0
F40.0
tp13
a(F48.0
F40.0
tp14
a(F50.0
F35.0
tp15
a(F47.0
F35.0
tp16
a(F45.0
F35.0
tp17
a(F45.0
F30.0
tp18
a(F48.0
F30.0
tp19
a(F50.0
F30.0
tp20
a(F53.0
F30.0
tp21
a(F53.0
F35.0
tp22
a(F50.0
F40.0
tp23
ag2
aa(lp24
g2
a(F42.0
F65.0
tp25
a(F45.0
F65.0
tp26
a(F45.0
F68.0
tp27
a(F45.0
F70.0
tp28
a(F42.0
F68.0
tp29
a(F40.0
F69.0
tp30
a(F38.0
F70.0
tp31
a(F38.0
F68.0
tp32
a(F42.0
F66.0
tp33
a(F40.0
F66.0
tp34
a(F35.0
F69.0
tp35
a(F35.0
F66.0
tp36
ag2
aa(lp37
g2
a(F38.0
F15.0
tp38
a(F40.0
F15.0
tp39
a(F42.0
F15.0
tp40
a(F42.0
F10.0
tp41
a(F35.0
F5.0
tp42
a(F38.0
F5.0
tp43
a(F40.0
F5.0
tp44
a(F44.0
F5.0
tp45
ag2
aa(lp46
g2
a(F33.0
F35.0
tp47
a(F30.0
F35.0
tp48
a(F28.0
F35.0
tp49
a(F25.0
F35.0
tp50
a(F26.0
F32.0
tp51
a(F25.0
F30.0
tp52
a(F28.0
F30.0
tp53
a(F30.0
F30.0
tp54
a(F30.0
F32.0
tp55
a(F32.0
F30.0
tp56
a(F33.0
F32.0
tp57
a(F35.0
F32.0
tp58
a(F35.0
F30.0
tp59
ag2
aa(lp60
g2
a(F58.0
F75.0
tp61
a(F60.0
F80.0
tp62
a(F62.0
F80.0
tp63
a(F65.0
F82.0
tp64
a(F67.0
F85.0
tp65
a(F65.0
F85.0
tp66
a(F60.0
F85.0
tp67
a(F55.0
F85.0
tp68
a(F55.0
F80.0
tp69
ag2
aa(lp70
g2
a(F60.0
F55.0
tp71
a(F65.0
F55.0
tp72
a(F66.0
F55.0
tp73
a(F72.0
F55.0
tp74
a(F75.0
F55.0
tp75
a(F70.0
F58.0
tp76
a(F68.0
F60.0
tp77
a(F65.0
F60.0
tp78
a(F63.0
F58.0
tp79
a(F60.0
F60.0
tp80
ag2
aa(lp81
g2
a(F10.0
F40.0
tp82
a(F8.0
F40.0
tp83
a(F8.0
F45.0
tp84
a(F5.0
F45.0
tp85
a(F0.0
F45.0
tp86
a(F0.0
F40.0
tp87
a(F2.0
F40.0
tp88
a(F5.0
F35.0
tp89
a(F10.0
F35.0
tp90
ag2
aa(lp91
g2
a(F30.0
F50.0
tp92
a(F30.0
F52.0
tp93
a(F28.0
F52.0
tp94
a(F25.0
F52.0
tp95
a(F23.0
F52.0
tp96
a(F25.0
F50.0
tp97
a(F20.0
F50.0
tp98
a(F20.0
F55.0
tp99
a(F23.0
F55.0
tp100
a(F25.0
F55.0
tp101
a(F28.0
F55.0
tp102
ag2
aa(lp103
g2
a(F22.0
F75.0
tp104
a(F18.0
F75.0
tp105
a(F15.0
F75.0
tp106
a(F15.0
F80.0
tp107
a(F20.0
F80.0
tp108
a(F20.0
F85.0
tp109
a(F22.0
F85.0
tp110
a(F25.0
F85.0
tp111
ag2
aa.